; Function Attrs: nofree nosync nounwind memory(readwrite, inaccessiblemem: none) uwtable
define i32 @Res_NodeRef_rec(ptr noundef readonly captures(none) %0) local_unnamed_addr #2 {
  %2 = getelementptr i8, ptr %0, i64 20
  %.val14 = load i32, ptr %2, align 4
  %3 = and i32 %.val14, 15
  switch i32 %3, label %.preheader [
    i32 5, label %.critedge
    i32 2, label %.critedge
  ]

.preheader:                                       ; preds = %1
  %4 = getelementptr i8, ptr %0, i64 28
  %.val17 = load i32, ptr %4, align 4, !tbaa !45
  %5 = icmp sgt i32 %.val17, 0
  br i1 %5, label %.lr.ph, label %.critedge

.lr.ph:                                           ; preds = %.preheader
  %6 = getelementptr i8, ptr %0, i64 32
  %.val12.pre21 = load ptr, ptr %0, align 8, !tbaa !13
  br label %7

7:                                                ; preds = %.lr.ph, %22
  %.val24 = phi i32 [ %.val17, %.lr.ph ], [ %.val, %22 ]
  %.val12 = phi ptr [ %.val12.pre21, %.lr.ph ], [ %.val1222, %22 ]
  %indvars.iv = phi i64 [ 0, %.lr.ph ], [ %indvars.iv.next, %22 ]
  %.019 = phi i32 [ 1, %.lr.ph ], [ %.1, %22 ]
  %.val13 = load ptr, ptr %6, align 8, !tbaa !46
  %8 = getelementptr i8, ptr %.val12, i64 32
  %.val12.val = load ptr, ptr %8, align 8, !tbaa !31
  %9 = getelementptr i8, ptr %.val12.val, i64 8
  %.val12.val.val = load ptr, ptr %9, align 8, !tbaa !40
  %10 = getelementptr inbounds nuw i32, ptr %.val13, i64 %indvars.iv
  %11 = load i32, ptr %10, align 4, !tbaa !36
  %12 = sext i32 %11 to i64
  %13 = getelementptr inbounds ptr, ptr %.val12.val.val, i64 %12
  %14 = load ptr, ptr %13, align 8, !tbaa !41
  %15 = getelementptr inbounds nuw i8, ptr %14, i64 44
  %16 = load i32, ptr %15, align 4, !tbaa !54
  %17 = add nsw i32 %16, 1
  store i32 %17, ptr %15, align 4, !tbaa !54
  %18 = icmp eq i32 %16, 0
  br i1 %18, label %19, label %22

19:                                               ; preds = %7
  %20 = tail call i32 @Res_NodeRef_rec(ptr noundef nonnull %14)
  %21 = add nsw i32 %20, %.019
  %.val12.pre = load ptr, ptr %0, align 8, !tbaa !13
  %.val.pre = load i32, ptr %4, align 4, !tbaa !45
  br label %22

22:                                               ; preds = %7, %19
  %.val = phi i32 [ %.val.pre, %19 ], [ %.val24, %7 ]
  %.val1222 = phi ptr [ %.val12.pre, %19 ], [ %.val12, %7 ]
  %.1 = phi i32 [ %21, %19 ], [ %.019, %7 ]
  %indvars.iv.next = add nuw nsw i64 %indvars.iv, 1
  %23 = sext i32 %.val to i64
  %24 = icmp slt i64 %indvars.iv.next, %23
  br i1 %24, label %7, label %.critedge, !llvm.loop !62

.critedge:                                        ; preds = %22, %.preheader, %1, %1
  %.011 = phi i32 [ 0, %1 ], [ 0, %1 ], [ 1, %.preheader ], [ %.1, %22 ]
  ret i32 %.011
}